; Function Attrs: nounwind uwtable
define hidden void @zim_InternalIterator_rewind(ptr nocapture noundef readonly %0, ptr nocapture readnone %1) #0 {
  %3 = getelementptr inbounds i8, ptr %0, i64 44
  %4 = load i32, ptr %3, align 4
  %.not = icmp eq i32 %4, 0
  br i1 %.not, label %6, label %5

5:                                                ; preds = %2
  tail call void @zend_wrong_parameters_none_error() #9
  br label %27

6:                                                ; preds = %2
  %7 = getelementptr inbounds i8, ptr %0, i64 32
  %.val = load ptr, ptr %7, align 8
  %8 = getelementptr inbounds i8, ptr %.val, i64 56
  %9 = load ptr, ptr %8, align 8
  %.not.i = icmp eq ptr %9, null
  br i1 %.not.i, label %10, label %zend_internal_iterator_fetch.exit

10:                                               ; preds = %6
  tail call void (ptr, ptr, ...) @zend_throw_error(ptr noundef null, ptr noundef nonnull @.str.8) #9
  %11 = load ptr, ptr getelementptr inbounds (%struct._zend_executor_globals, ptr @executor_globals, i64 0, i32 50), align 8
  %12 = icmp ne ptr %11, null
  tail call void @llvm.assume(i1 %12)
  br label %27

zend_internal_iterator_fetch.exit:                ; preds = %6
  %13 = getelementptr inbounds i8, ptr %.val, i64 64
  store i8 1, ptr %13, align 8
  %14 = getelementptr inbounds i8, ptr %9, i64 72
  %15 = load ptr, ptr %14, align 8
  %16 = getelementptr inbounds i8, ptr %15, i64 40
  %17 = load ptr, ptr %16, align 8
  %.not12 = icmp eq ptr %17, null
  br i1 %.not12, label %18, label %24

18:                                               ; preds = %zend_internal_iterator_fetch.exit
  %19 = getelementptr inbounds i8, ptr %9, i64 80
  %20 = load i64, ptr %19, align 8
  %.not13 = icmp eq i64 %20, 0
  br i1 %.not13, label %27, label %21

21:                                               ; preds = %18
  tail call void (ptr, ptr, ...) @zend_throw_error(ptr noundef null, ptr noundef nonnull @.str.7) #9
  %22 = load ptr, ptr getelementptr inbounds (%struct._zend_executor_globals, ptr @executor_globals, i64 0, i32 50), align 8
  %23 = icmp ne ptr %22, null
  tail call void @llvm.assume(i1 %23)
  br label %27

24:                                               ; preds = %zend_internal_iterator_fetch.exit
  tail call void %17(ptr noundef nonnull %9) #9
  %25 = load ptr, ptr %8, align 8
  %26 = getelementptr inbounds i8, ptr %25, i64 80
  store i64 0, ptr %26, align 8
  br label %27

27:                                               ; preds = %18, %24, %21, %10, %5
  ret void
}